; Function Attrs: mustprogress nounwind uwtable
define internal void @_ZN12_GLOBAL__N_115MCMachOStreamer18emitCGProfileEntryEPKN4llvm15MCSymbolRefExprES4_m(ptr noundef nonnull readonly align 8 captures(none) dereferenceable(456) %0, ptr noundef %1, ptr noundef %2, i64 noundef %3) unnamed_addr #0 align 2 {
  %5 = alloca %"struct.llvm::MCObjectWriter::CGProfileEntry", align 8
  %6 = getelementptr inbounds nuw i8, ptr %1, i64 16
  %7 = load ptr, ptr %6, align 8
  %8 = getelementptr inbounds nuw i8, ptr %7, i64 8
  %9 = load i64, ptr %8, align 8
  %10 = and i64 %9, 2
  %.not = icmp eq i64 %10, 0
  br i1 %.not, label %11, label %23

11:                                               ; preds = %4
  %12 = getelementptr inbounds nuw i8, ptr %2, i64 16
  %13 = load ptr, ptr %12, align 8
  %14 = getelementptr inbounds nuw i8, ptr %13, i64 8
  %15 = load i64, ptr %14, align 8
  %16 = and i64 %15, 2
  %.not5 = icmp eq i64 %16, 0
  br i1 %.not5, label %17, label %23

17:                                               ; preds = %11
  %18 = getelementptr inbounds nuw i8, ptr %0, i64 288
  %.val = load ptr, ptr %18, align 8
  %19 = getelementptr i8, ptr %.val, i64 24
  %.val.val = load ptr, ptr %19, align 8
  %20 = getelementptr inbounds nuw i8, ptr %.val.val, i64 88
  store ptr %1, ptr %5, align 8
  %21 = getelementptr inbounds nuw i8, ptr %5, i64 8
  store ptr %2, ptr %21, align 8
  %22 = getelementptr inbounds nuw i8, ptr %5, i64 16
  store i64 %3, ptr %22, align 8
  call void @_ZN4llvm23SmallVectorTemplateBaseINS_14MCObjectWriter14CGProfileEntryELb1EE9push_backERKS2_(ptr noundef nonnull align 8 dereferenceable(16) %20, ptr noundef nonnull align 8 dereferenceable(24) %5)
  br label %23

23:                                               ; preds = %17, %11, %4
  ret void
}